target datalayout = "e-m:e-p270:32:32-p271:32:32-p272:64:64-i64:64-i128:128-f80:128-n8:16:32:64-S128"
target triple = "x86_64-pc-linux-gnu"

%struct._object = type { %union.anon, ptr }
%union.anon = type { i64 }
%struct.anon = type { i32, i32 }
%struct.tagPyCArgObject = type { %struct._object, ptr, i8, %union.anon.0, ptr, i64 }
%union.anon.0 = type { x86_fp80 }

@.str.34 = private unnamed_addr constant [19 x i8] c"<cparam '%c' (%d)>\00", align 1
@.str.35 = private unnamed_addr constant [20 x i8] c"<cparam '%c' (%ld)>\00", align 1
@.str.36 = private unnamed_addr constant [21 x i8] c"<cparam '%c' (%lld)>\00", align 1
@.str.37 = private unnamed_addr constant [19 x i8] c"<cparam '%c' (%R)>\00", align 1
@.str.38 = private unnamed_addr constant [21 x i8] c"<cparam '%c' ('%c')>\00", align 1
@.str.39 = private unnamed_addr constant [25 x i8] c"<cparam '%c' ('\\x%02x')>\00", align 1
@.str.40 = private unnamed_addr constant [19 x i8] c"<cparam '%c' (%p)>\00", align 1
@.str.41 = private unnamed_addr constant [20 x i8] c"<cparam '%c' at %p>\00", align 1
@.str.42 = private unnamed_addr constant [22 x i8] c"<cparam 0x%02x at %p>\00", align 1

; Function Attrs: alwaysinline nounwind uwtable
define internal i32 @_Py_IsImmortal(ptr noundef %0) #3 {
  %2 = alloca ptr, align 8
  store ptr %0, ptr %2, align 8, !tbaa !9
  %3 = load ptr, ptr %2, align 8, !tbaa !9
  %4 = getelementptr inbounds nuw %struct._object, ptr %3, i32 0, i32 0
  %5 = getelementptr inbounds nuw %struct.anon, ptr %4, i32 0, i32 0
  %6 = load i32, ptr %5, align 8, !tbaa !16
  %7 = icmp slt i32 %6, 0
  %8 = zext i1 %7 to i32
  ret i32 %8
}

; Function Attrs: nounwind uwtable
define internal i32 @is_literal_char(i8 noundef zeroext %0) #0 {
  %2 = alloca i8, align 1
  store i8 %0, ptr %2, align 1, !tbaa !16
  %3 = load i8, ptr %2, align 1, !tbaa !16
  %4 = zext i8 %3 to i32
  %5 = icmp slt i32 %4, 128
  br i1 %5, label %6, label %19

6:                                                ; preds = %1
  %7 = load i8, ptr %2, align 1, !tbaa !16
  %8 = zext i8 %7 to i32
  %9 = call i32 @_PyUnicode_IsPrintable(i32 noundef %8)
  %10 = icmp ne i32 %9, 0
  br i1 %10, label %11, label %19

11:                                               ; preds = %6
  %12 = load i8, ptr %2, align 1, !tbaa !16
  %13 = zext i8 %12 to i32
  %14 = icmp ne i32 %13, 92
  br i1 %14, label %15, label %19

15:                                               ; preds = %11
  %16 = load i8, ptr %2, align 1, !tbaa !16
  %17 = zext i8 %16 to i32
  %18 = icmp ne i32 %17, 39
  br label %19

19:                                               ; preds = %15, %11, %6, %1
  %20 = phi i1 [ false, %11 ], [ false, %6 ], [ false, %1 ], [ %18, %15 ]
  %21 = zext i1 %20 to i32
  ret i32 %21
}

; Function Attrs: alwaysinline nounwind uwtable
define internal void @Py_DECREF(ptr noundef %0) #3 {
  %2 = alloca ptr, align 8
  store ptr %0, ptr %2, align 8, !tbaa !9
  %3 = load ptr, ptr %2, align 8, !tbaa !9
  %4 = call i32 @_Py_IsImmortal(ptr noundef %3)
  %5 = icmp ne i32 %4, 0
  br i1 %5, label %6, label %7

6:                                                ; preds = %1
  br label %16

7:                                                ; preds = %1
  %8 = load ptr, ptr %2, align 8, !tbaa !9
  %9 = getelementptr inbounds nuw %struct._object, ptr %8, i32 0, i32 0
  %10 = getelementptr inbounds nuw %struct.anon, ptr %9, i32 0, i32 0
  %11 = load i32, ptr %10, align 8, !tbaa !16
  %12 = add i32 %11, -1
  store i32 %12, ptr %10, align 8, !tbaa !16
  %13 = icmp eq i32 %12, 0
  br i1 %13, label %14, label %16

14:                                               ; preds = %7
  %15 = load ptr, ptr %2, align 8, !tbaa !9
  call void @_Py_Dealloc(ptr noundef %15)
  br label %16

16:                                               ; preds = %6, %14, %7
  ret void
}

; Function Attrs: nounwind uwtable
define internal ptr @PyCArg_repr(ptr noundef %0) #0 {
  %2 = alloca ptr, align 8
  %3 = alloca ptr, align 8
  %4 = alloca ptr, align 8
  %5 = alloca i32, align 4
  %6 = alloca ptr, align 8
  %7 = alloca ptr, align 8
  store ptr %0, ptr %3, align 8, !tbaa !9
  call void @llvm.lifetime.start.p0(i64 8, ptr %4) #10
  %8 = load ptr, ptr %3, align 8, !tbaa !9
  store ptr %8, ptr %4, align 8, !tbaa !18
  %9 = load ptr, ptr %4, align 8, !tbaa !18
  %10 = getelementptr inbounds nuw %struct.tagPyCArgObject, ptr %9, i32 0, i32 2
  %11 = load i8, ptr %10, align 8, !tbaa !25
  %12 = sext i8 %11 to i32
  switch i32 %12, label %126 [
    i32 98, label %13
    i32 66, label %13
    i32 104, label %23
    i32 72, label %23
    i32 105, label %33
    i32 73, label %33
    i32 108, label %42
    i32 76, label %42
    i32 113, label %51
    i32 81, label %51
    i32 100, label %60
    i32 102, label %60
    i32 99, label %91
    i32 122, label %117
    i32 90, label %117
    i32 80, label %117
  ]

13:                                               ; preds = %1, %1
  %14 = load ptr, ptr %4, align 8, !tbaa !18
  %15 = getelementptr inbounds nuw %struct.tagPyCArgObject, ptr %14, i32 0, i32 2
  %16 = load i8, ptr %15, align 8, !tbaa !25
  %17 = sext i8 %16 to i32
  %18 = load ptr, ptr %4, align 8, !tbaa !18
  %19 = getelementptr inbounds nuw %struct.tagPyCArgObject, ptr %18, i32 0, i32 3
  %20 = load i8, ptr %19, align 16, !tbaa !16
  %21 = sext i8 %20 to i32
  %22 = call ptr (ptr, ...) @PyUnicode_FromFormat(ptr noundef @.str.34, i32 noundef %17, i32 noundef %21)
  store ptr %22, ptr %2, align 8
  store i32 1, ptr %5, align 4
  br label %146

23:                                               ; preds = %1, %1
  %24 = load ptr, ptr %4, align 8, !tbaa !18
  %25 = getelementptr inbounds nuw %struct.tagPyCArgObject, ptr %24, i32 0, i32 2
  %26 = load i8, ptr %25, align 8, !tbaa !25
  %27 = sext i8 %26 to i32
  %28 = load ptr, ptr %4, align 8, !tbaa !18
  %29 = getelementptr inbounds nuw %struct.tagPyCArgObject, ptr %28, i32 0, i32 3
  %30 = load i16, ptr %29, align 16, !tbaa !16
  %31 = sext i16 %30 to i32
  %32 = call ptr (ptr, ...) @PyUnicode_FromFormat(ptr noundef @.str.34, i32 noundef %27, i32 noundef %31)
  store ptr %32, ptr %2, align 8
  store i32 1, ptr %5, align 4
  br label %146

33:                                               ; preds = %1, %1
  %34 = load ptr, ptr %4, align 8, !tbaa !18
  %35 = getelementptr inbounds nuw %struct.tagPyCArgObject, ptr %34, i32 0, i32 2
  %36 = load i8, ptr %35, align 8, !tbaa !25
  %37 = sext i8 %36 to i32
  %38 = load ptr, ptr %4, align 8, !tbaa !18
  %39 = getelementptr inbounds nuw %struct.tagPyCArgObject, ptr %38, i32 0, i32 3
  %40 = load i32, ptr %39, align 16, !tbaa !16
  %41 = call ptr (ptr, ...) @PyUnicode_FromFormat(ptr noundef @.str.34, i32 noundef %37, i32 noundef %40)
  store ptr %41, ptr %2, align 8
  store i32 1, ptr %5, align 4
  br label %146

42:                                               ; preds = %1, %1
  %43 = load ptr, ptr %4, align 8, !tbaa !18
  %44 = getelementptr inbounds nuw %struct.tagPyCArgObject, ptr %43, i32 0, i32 2
  %45 = load i8, ptr %44, align 8, !tbaa !25
  %46 = sext i8 %45 to i32
  %47 = load ptr, ptr %4, align 8, !tbaa !18
  %48 = getelementptr inbounds nuw %struct.tagPyCArgObject, ptr %47, i32 0, i32 3
  %49 = load i64, ptr %48, align 16, !tbaa !16
  %50 = call ptr (ptr, ...) @PyUnicode_FromFormat(ptr noundef @.str.35, i32 noundef %46, i64 noundef %49)
  store ptr %50, ptr %2, align 8
  store i32 1, ptr %5, align 4
  br label %146

51:                                               ; preds = %1, %1
  %52 = load ptr, ptr %4, align 8, !tbaa !18
  %53 = getelementptr inbounds nuw %struct.tagPyCArgObject, ptr %52, i32 0, i32 2
  %54 = load i8, ptr %53, align 8, !tbaa !25
  %55 = sext i8 %54 to i32
  %56 = load ptr, ptr %4, align 8, !tbaa !18
  %57 = getelementptr inbounds nuw %struct.tagPyCArgObject, ptr %56, i32 0, i32 3
  %58 = load i64, ptr %57, align 16, !tbaa !16
  %59 = call ptr (ptr, ...) @PyUnicode_FromFormat(ptr noundef @.str.36, i32 noundef %55, i64 noundef %58)
  store ptr %59, ptr %2, align 8
  store i32 1, ptr %5, align 4
  br label %146

60:                                               ; preds = %1, %1
  call void @llvm.lifetime.start.p0(i64 8, ptr %6) #10
  %61 = load ptr, ptr %4, align 8, !tbaa !18
  %62 = getelementptr inbounds nuw %struct.tagPyCArgObject, ptr %61, i32 0, i32 2
  %63 = load i8, ptr %62, align 8, !tbaa !25
  %64 = sext i8 %63 to i32
  %65 = icmp eq i32 %64, 102
  br i1 %65, label %66, label %71

66:                                               ; preds = %60
  %67 = load ptr, ptr %4, align 8, !tbaa !18
  %68 = getelementptr inbounds nuw %struct.tagPyCArgObject, ptr %67, i32 0, i32 3
  %69 = load float, ptr %68, align 16, !tbaa !16
  %70 = fpext float %69 to double
  br label %75

71:                                               ; preds = %60
  %72 = load ptr, ptr %4, align 8, !tbaa !18
  %73 = getelementptr inbounds nuw %struct.tagPyCArgObject, ptr %72, i32 0, i32 3
  %74 = load double, ptr %73, align 16, !tbaa !16
  br label %75

75:                                               ; preds = %71, %66
  %76 = phi double [ %70, %66 ], [ %74, %71 ]
  %77 = call ptr @PyFloat_FromDouble(double noundef %76)
  store ptr %77, ptr %6, align 8, !tbaa !9
  %78 = load ptr, ptr %6, align 8, !tbaa !9
  %79 = icmp eq ptr %78, null
  br i1 %79, label %80, label %81

80:                                               ; preds = %75
  store ptr null, ptr %2, align 8
  store i32 1, ptr %5, align 4
  br label %90

81:                                               ; preds = %75
  call void @llvm.lifetime.start.p0(i64 8, ptr %7) #10
  %82 = load ptr, ptr %4, align 8, !tbaa !18
  %83 = getelementptr inbounds nuw %struct.tagPyCArgObject, ptr %82, i32 0, i32 2
  %84 = load i8, ptr %83, align 8, !tbaa !25
  %85 = sext i8 %84 to i32
  %86 = load ptr, ptr %6, align 8, !tbaa !9
  %87 = call ptr (ptr, ...) @PyUnicode_FromFormat(ptr noundef @.str.37, i32 noundef %85, ptr noundef %86)
  store ptr %87, ptr %7, align 8, !tbaa !9
  %88 = load ptr, ptr %6, align 8, !tbaa !9
  call void @Py_DECREF(ptr noundef %88)
  %89 = load ptr, ptr %7, align 8, !tbaa !9
  store ptr %89, ptr %2, align 8
  store i32 1, ptr %5, align 4
  call void @llvm.lifetime.end.p0(i64 8, ptr %7) #10
  br label %90

90:                                               ; preds = %81, %80
  call void @llvm.lifetime.end.p0(i64 8, ptr %6) #10
  br label %146

91:                                               ; preds = %1
  %92 = load ptr, ptr %4, align 8, !tbaa !18
  %93 = getelementptr inbounds nuw %struct.tagPyCArgObject, ptr %92, i32 0, i32 3
  %94 = load i8, ptr %93, align 16, !tbaa !16
  %95 = call i32 @is_literal_char(i8 noundef zeroext %94)
  %96 = icmp ne i32 %95, 0
  br i1 %96, label %97, label %107

97:                                               ; preds = %91
  %98 = load ptr, ptr %4, align 8, !tbaa !18
  %99 = getelementptr inbounds nuw %struct.tagPyCArgObject, ptr %98, i32 0, i32 2
  %100 = load i8, ptr %99, align 8, !tbaa !25
  %101 = sext i8 %100 to i32
  %102 = load ptr, ptr %4, align 8, !tbaa !18
  %103 = getelementptr inbounds nuw %struct.tagPyCArgObject, ptr %102, i32 0, i32 3
  %104 = load i8, ptr %103, align 16, !tbaa !16
  %105 = sext i8 %104 to i32
  %106 = call ptr (ptr, ...) @PyUnicode_FromFormat(ptr noundef @.str.38, i32 noundef %101, i32 noundef %105)
  store ptr %106, ptr %2, align 8
  store i32 1, ptr %5, align 4
  br label %146

107:                                              ; preds = %91
  %108 = load ptr, ptr %4, align 8, !tbaa !18
  %109 = getelementptr inbounds nuw %struct.tagPyCArgObject, ptr %108, i32 0, i32 2
  %110 = load i8, ptr %109, align 8, !tbaa !25
  %111 = sext i8 %110 to i32
  %112 = load ptr, ptr %4, align 8, !tbaa !18
  %113 = getelementptr inbounds nuw %struct.tagPyCArgObject, ptr %112, i32 0, i32 3
  %114 = load i8, ptr %113, align 16, !tbaa !16
  %115 = zext i8 %114 to i32
  %116 = call ptr (ptr, ...) @PyUnicode_FromFormat(ptr noundef @.str.39, i32 noundef %111, i32 noundef %115)
  store ptr %116, ptr %2, align 8
  store i32 1, ptr %5, align 4
  br label %146

117:                                              ; preds = %1, %1, %1
  %118 = load ptr, ptr %4, align 8, !tbaa !18
  %119 = getelementptr inbounds nuw %struct.tagPyCArgObject, ptr %118, i32 0, i32 2
  %120 = load i8, ptr %119, align 8, !tbaa !25
  %121 = sext i8 %120 to i32
  %122 = load ptr, ptr %4, align 8, !tbaa !18
  %123 = getelementptr inbounds nuw %struct.tagPyCArgObject, ptr %122, i32 0, i32 3
  %124 = load ptr, ptr %123, align 16, !tbaa !16
  %125 = call ptr (ptr, ...) @PyUnicode_FromFormat(ptr noundef @.str.40, i32 noundef %121, ptr noundef %124)
  store ptr %125, ptr %2, align 8
  store i32 1, ptr %5, align 4
  br label %146

126:                                              ; preds = %1
  %127 = load ptr, ptr %4, align 8, !tbaa !18
  %128 = getelementptr inbounds nuw %struct.tagPyCArgObject, ptr %127, i32 0, i32 2
  %129 = load i8, ptr %128, align 8, !tbaa !25
  %130 = call i32 @is_literal_char(i8 noundef zeroext %129)
  %131 = icmp ne i32 %130, 0
  br i1 %131, label %132, label %139

132:                                              ; preds = %126
  %133 = load ptr, ptr %4, align 8, !tbaa !18
  %134 = getelementptr inbounds nuw %struct.tagPyCArgObject, ptr %133, i32 0, i32 2
  %135 = load i8, ptr %134, align 8, !tbaa !25
  %136 = zext i8 %135 to i32
  %137 = load ptr, ptr %4, align 8, !tbaa !18
  %138 = call ptr (ptr, ...) @PyUnicode_FromFormat(ptr noundef @.str.41, i32 noundef %136, ptr noundef %137)
  store ptr %138, ptr %2, align 8
  store i32 1, ptr %5, align 4
  br label %146

139:                                              ; preds = %126
  %140 = load ptr, ptr %4, align 8, !tbaa !18
  %141 = getelementptr inbounds nuw %struct.tagPyCArgObject, ptr %140, i32 0, i32 2
  %142 = load i8, ptr %141, align 8, !tbaa !25
  %143 = zext i8 %142 to i32
  %144 = load ptr, ptr %4, align 8, !tbaa !18
  %145 = call ptr (ptr, ...) @PyUnicode_FromFormat(ptr noundef @.str.42, i32 noundef %143, ptr noundef %144)
  store ptr %145, ptr %2, align 8
  store i32 1, ptr %5, align 4
  br label %146

146:                                              ; preds = %139, %132, %117, %107, %97, %90, %51, %42, %33, %23, %13
  call void @llvm.lifetime.end.p0(i64 8, ptr %4) #10
  %147 = load ptr, ptr %2, align 8
  ret ptr %147
}