; Function Attrs: nounwind uwtable
define internal ptr @PyCArg_repr(ptr noundef %0) #0 {
  %2 = getelementptr inbounds nuw i8, ptr %0, i64 24
  %3 = load i8, ptr %2, align 8, !tbaa !20
  switch i8 %3, label %73 [
    i8 98, label %4
    i8 66, label %4
    i8 104, label %10
    i8 72, label %10
    i8 105, label %16
    i8 73, label %16
    i8 108, label %21
    i8 76, label %21
    i8 113, label %26
    i8 81, label %26
    i8 80, label %68
    i8 90, label %68
    i8 99, label %51
    i8 122, label %68
    i8 102, label %31
    i8 100, label %35
  ]

4:                                                ; preds = %1, %1
  %5 = zext nneg i8 %3 to i32
  %6 = getelementptr inbounds nuw i8, ptr %0, i64 32
  %7 = load i8, ptr %6, align 16, !tbaa !11
  %8 = sext i8 %7 to i32
  %9 = tail call ptr (ptr, ...) @PyUnicode_FromFormat(ptr noundef nonnull @.str.34, i32 noundef %5, i32 noundef %8) #10
  br label %Py_DECREF.exit

10:                                               ; preds = %1, %1
  %11 = zext nneg i8 %3 to i32
  %12 = getelementptr inbounds nuw i8, ptr %0, i64 32
  %13 = load i16, ptr %12, align 16, !tbaa !11
  %14 = sext i16 %13 to i32
  %15 = tail call ptr (ptr, ...) @PyUnicode_FromFormat(ptr noundef nonnull @.str.34, i32 noundef %11, i32 noundef %14) #10
  br label %Py_DECREF.exit

16:                                               ; preds = %1, %1
  %17 = zext nneg i8 %3 to i32
  %18 = getelementptr inbounds nuw i8, ptr %0, i64 32
  %19 = load i32, ptr %18, align 16, !tbaa !11
  %20 = tail call ptr (ptr, ...) @PyUnicode_FromFormat(ptr noundef nonnull @.str.34, i32 noundef %17, i32 noundef %19) #10
  br label %Py_DECREF.exit

21:                                               ; preds = %1, %1
  %22 = zext nneg i8 %3 to i32
  %23 = getelementptr inbounds nuw i8, ptr %0, i64 32
  %24 = load i64, ptr %23, align 16, !tbaa !11
  %25 = tail call ptr (ptr, ...) @PyUnicode_FromFormat(ptr noundef nonnull @.str.35, i32 noundef %22, i64 noundef %24) #10
  br label %Py_DECREF.exit

26:                                               ; preds = %1, %1
  %27 = zext nneg i8 %3 to i32
  %28 = getelementptr inbounds nuw i8, ptr %0, i64 32
  %29 = load i64, ptr %28, align 16, !tbaa !11
  %30 = tail call ptr (ptr, ...) @PyUnicode_FromFormat(ptr noundef nonnull @.str.36, i32 noundef %27, i64 noundef %29) #10
  br label %Py_DECREF.exit

31:                                               ; preds = %1
  %32 = getelementptr inbounds nuw i8, ptr %0, i64 32
  %33 = load float, ptr %32, align 16, !tbaa !11
  %34 = fpext float %33 to double
  br label %38

35:                                               ; preds = %1
  %36 = getelementptr inbounds nuw i8, ptr %0, i64 32
  %37 = load double, ptr %36, align 16, !tbaa !11
  br label %38

38:                                               ; preds = %35, %31
  %39 = phi double [ %34, %31 ], [ %37, %35 ]
  %40 = tail call ptr @PyFloat_FromDouble(double noundef %39) #10
  %41 = icmp eq ptr %40, null
  br i1 %41, label %Py_DECREF.exit, label %42

42:                                               ; preds = %38
  %43 = load i8, ptr %2, align 8, !tbaa !20
  %44 = sext i8 %43 to i32
  %45 = tail call ptr (ptr, ...) @PyUnicode_FromFormat(ptr noundef nonnull @.str.37, i32 noundef %44, ptr noundef nonnull %40) #10
  %46 = load i32, ptr %40, align 8, !tbaa !11
  %.not.i = icmp sgt i32 %46, -1
  br i1 %.not.i, label %47, label %Py_DECREF.exit

47:                                               ; preds = %42
  %48 = add nsw i32 %46, -1
  store i32 %48, ptr %40, align 8, !tbaa !11
  %49 = icmp eq i32 %48, 0
  br i1 %49, label %50, label %Py_DECREF.exit

50:                                               ; preds = %47
  tail call void @_Py_Dealloc(ptr noundef nonnull %40) #10
  br label %Py_DECREF.exit

51:                                               ; preds = %1
  %52 = getelementptr inbounds nuw i8, ptr %0, i64 32
  %53 = load i8, ptr %52, align 16, !tbaa !11
  %54 = icmp sgt i8 %53, -1
  br i1 %54, label %55, label %is_literal_char.exit.thread

55:                                               ; preds = %51
  %56 = zext nneg i8 %53 to i32
  %57 = tail call i32 @_PyUnicode_IsPrintable(i32 noundef %56) #10
  %.fr = freeze i32 %57
  %58 = icmp eq i32 %.fr, 0
  %.pre = load i8, ptr %2, align 8, !tbaa !20
  %.pre47 = load i8, ptr %52, align 16, !tbaa !11
  br i1 %58, label %is_literal_char.exit.thread, label %switch.early.test

switch.early.test:                                ; preds = %55
  switch i8 %53, label %59 [
    i8 92, label %is_literal_char.exit.thread
    i8 39, label %is_literal_char.exit.thread
  ]

59:                                               ; preds = %switch.early.test
  %60 = sext i8 %.pre to i32
  %61 = sext i8 %.pre47 to i32
  %62 = tail call ptr (ptr, ...) @PyUnicode_FromFormat(ptr noundef nonnull @.str.38, i32 noundef %60, i32 noundef %61) #10
  br label %Py_DECREF.exit

is_literal_char.exit.thread:                      ; preds = %switch.early.test, %switch.early.test, %55, %51
  %63 = phi i8 [ %53, %51 ], [ %.pre47, %switch.early.test ], [ %.pre47, %55 ], [ %.pre47, %switch.early.test ]
  %64 = phi i8 [ 99, %51 ], [ %.pre, %switch.early.test ], [ %.pre, %55 ], [ %.pre, %switch.early.test ]
  %65 = sext i8 %64 to i32
  %66 = zext i8 %63 to i32
  %67 = tail call ptr (ptr, ...) @PyUnicode_FromFormat(ptr noundef nonnull @.str.39, i32 noundef %65, i32 noundef %66) #10
  br label %Py_DECREF.exit

68:                                               ; preds = %1, %1, %1
  %69 = zext nneg i8 %3 to i32
  %70 = getelementptr inbounds nuw i8, ptr %0, i64 32
  %71 = load ptr, ptr %70, align 16, !tbaa !11
  %72 = tail call ptr (ptr, ...) @PyUnicode_FromFormat(ptr noundef nonnull @.str.40, i32 noundef %69, ptr noundef %71) #10
  br label %Py_DECREF.exit

73:                                               ; preds = %1
  %74 = icmp sgt i8 %3, -1
  br i1 %74, label %75, label %is_literal_char.exit36.thread

75:                                               ; preds = %73
  %76 = zext nneg i8 %3 to i32
  %77 = tail call i32 @_PyUnicode_IsPrintable(i32 noundef %76) #10
  %.fr50 = freeze i32 %77
  %78 = icmp eq i32 %.fr50, 0
  %.pre48 = load i8, ptr %2, align 8, !tbaa !20
  br i1 %78, label %is_literal_char.exit36.thread, label %switch.early.test49

switch.early.test49:                              ; preds = %75
  switch i8 %3, label %79 [
    i8 92, label %is_literal_char.exit36.thread
    i8 39, label %is_literal_char.exit36.thread
  ]

79:                                               ; preds = %switch.early.test49
  %80 = zext i8 %.pre48 to i32
  %81 = tail call ptr (ptr, ...) @PyUnicode_FromFormat(ptr noundef nonnull @.str.41, i32 noundef %80, ptr noundef nonnull %0) #10
  br label %Py_DECREF.exit

is_literal_char.exit36.thread:                    ; preds = %switch.early.test49, %switch.early.test49, %75, %73
  %82 = phi i8 [ %3, %73 ], [ %.pre48, %switch.early.test49 ], [ %.pre48, %75 ], [ %.pre48, %switch.early.test49 ]
  %83 = zext i8 %82 to i32
  %84 = tail call ptr (ptr, ...) @PyUnicode_FromFormat(ptr noundef nonnull @.str.42, i32 noundef %83, ptr noundef nonnull %0) #10
  br label %Py_DECREF.exit

Py_DECREF.exit:                                   ; preds = %50, %47, %42, %38, %is_literal_char.exit36.thread, %79, %68, %is_literal_char.exit.thread, %59, %26, %21, %16, %10, %4
  %.0 = phi ptr [ %81, %79 ], [ %84, %is_literal_char.exit36.thread ], [ %72, %68 ], [ %62, %59 ], [ %67, %is_literal_char.exit.thread ], [ %30, %26 ], [ %25, %21 ], [ %20, %16 ], [ %15, %10 ], [ %9, %4 ], [ null, %38 ], [ %45, %42 ], [ %45, %47 ], [ %45, %50 ]
  ret ptr %.0
}